target datalayout = "e-m:e-p270:32:32-p271:32:32-p272:64:64-i64:64-i128:128-f80:128-n8:16:32:64-S128"
target triple = "x86_64-pc-linux-gnu"

%union.ufmt_args = type { i64 }
%struct.u_printf_spec_info = type { i32, i32, i16, i16, i16, i8, i8, i8, i8, i8, i8, i8, i8, i8 }
%struct.u_printf_stream_handler = type { ptr, ptr }

; Function Attrs: mustprogress uwtable
define internal noundef i32 @_ZL20u_printf_hex_handlerPK23u_printf_stream_handlerPvP13ULocaleBundlePK18u_printf_spec_infoPK9ufmt_args(ptr noundef %0, ptr noundef %1, ptr noundef %2, ptr noundef %3, ptr noundef %4) #0 {
  %6 = alloca ptr, align 8
  %7 = alloca ptr, align 8
  %8 = alloca ptr, align 8
  %9 = alloca ptr, align 8
  %10 = alloca ptr, align 8
  %11 = alloca i64, align 8
  %12 = alloca [1024 x i16], align 16
  %13 = alloca i32, align 4
  store ptr %0, ptr %6, align 8, !tbaa !3
  store ptr %1, ptr %7, align 8, !tbaa !10
  store ptr %2, ptr %8, align 8, !tbaa !13
  store ptr %3, ptr %9, align 8, !tbaa !19
  store ptr %4, ptr %10, align 8, !tbaa !21
  call void @llvm.lifetime.start.p0(i64 8, ptr %11) #9
  %14 = load ptr, ptr %10, align 8, !tbaa !21
  %15 = getelementptr inbounds %union.ufmt_args, ptr %14, i64 0
  %16 = load i64, ptr %15, align 8, !tbaa !69
  store i64 %16, ptr %11, align 8, !tbaa !70
  call void @llvm.lifetime.start.p0(i64 2048, ptr %12) #9
  call void @llvm.lifetime.start.p0(i64 4, ptr %13) #9
  store i32 1024, ptr %13, align 4, !tbaa !36
  %17 = load ptr, ptr %9, align 8, !tbaa !19
  %18 = getelementptr inbounds nuw %struct.u_printf_spec_info, ptr %17, i32 0, i32 11
  %19 = load i8, ptr %18, align 4, !tbaa !56
  %20 = icmp ne i8 %19, 0
  br i1 %20, label %21, label %24

21:                                               ; preds = %5
  %22 = load i64, ptr %11, align 8, !tbaa !70
  %23 = and i64 %22, 65535
  store i64 %23, ptr %11, align 8, !tbaa !70
  br label %33

24:                                               ; preds = %5
  %25 = load ptr, ptr %9, align 8, !tbaa !19
  %26 = getelementptr inbounds nuw %struct.u_printf_spec_info, ptr %25, i32 0, i32 13
  %27 = load i8, ptr %26, align 2, !tbaa !57
  %28 = icmp ne i8 %27, 0
  br i1 %28, label %32, label %29

29:                                               ; preds = %24
  %30 = load i64, ptr %11, align 8, !tbaa !70
  %31 = and i64 %30, 4294967295
  store i64 %31, ptr %11, align 8, !tbaa !70
  br label %32

32:                                               ; preds = %29, %24
  br label %33

33:                                               ; preds = %32, %21
  %34 = getelementptr inbounds [1024 x i16], ptr %12, i64 0, i64 0
  %35 = load i64, ptr %11, align 8, !tbaa !70
  %36 = load ptr, ptr %9, align 8, !tbaa !19
  %37 = getelementptr inbounds nuw %struct.u_printf_spec_info, ptr %36, i32 0, i32 3
  %38 = load i16, ptr %37, align 2, !tbaa !60
  %39 = zext i16 %38 to i32
  %40 = icmp eq i32 %39, 120
  %41 = zext i1 %40 to i8
  %42 = load ptr, ptr %9, align 8, !tbaa !19
  %43 = getelementptr inbounds nuw %struct.u_printf_spec_info, ptr %42, i32 0, i32 0
  %44 = load i32, ptr %43, align 4, !tbaa !42
  %45 = icmp eq i32 %44, -1
  br i1 %45, label %46, label %55

46:                                               ; preds = %33
  %47 = load ptr, ptr %9, align 8, !tbaa !19
  %48 = getelementptr inbounds nuw %struct.u_printf_spec_info, ptr %47, i32 0, i32 9
  %49 = load i8, ptr %48, align 2, !tbaa !50
  %50 = icmp ne i8 %49, 0
  br i1 %50, label %51, label %55

51:                                               ; preds = %46
  %52 = load ptr, ptr %9, align 8, !tbaa !19
  %53 = getelementptr inbounds nuw %struct.u_printf_spec_info, ptr %52, i32 0, i32 1
  %54 = load i32, ptr %53, align 4, !tbaa !43
  br label %59

55:                                               ; preds = %46, %33
  %56 = load ptr, ptr %9, align 8, !tbaa !19
  %57 = getelementptr inbounds nuw %struct.u_printf_spec_info, ptr %56, i32 0, i32 0
  %58 = load i32, ptr %57, align 4, !tbaa !42
  br label %59

59:                                               ; preds = %55, %51
  %60 = phi i32 [ %54, %51 ], [ %58, %55 ]
  call void @_Z13ufmt_64tou_77PDsPimhai(ptr noundef %34, ptr noundef %13, i64 noundef %35, i8 noundef zeroext 16, i8 noundef signext %41, i32 noundef %60)
  %61 = load i64, ptr %11, align 8, !tbaa !70
  %62 = icmp ne i64 %61, 0
  br i1 %62, label %63, label %85

63:                                               ; preds = %59
  %64 = load ptr, ptr %9, align 8, !tbaa !19
  %65 = getelementptr inbounds nuw %struct.u_printf_spec_info, ptr %64, i32 0, i32 5
  %66 = load i8, ptr %65, align 2, !tbaa !49
  %67 = icmp ne i8 %66, 0
  br i1 %67, label %68, label %85

68:                                               ; preds = %63
  %69 = load i32, ptr %13, align 4, !tbaa !36
  %70 = icmp slt i32 %69, 1022
  br i1 %70, label %71, label %85

71:                                               ; preds = %68
  %72 = getelementptr inbounds [1024 x i16], ptr %12, i64 0, i64 0
  %73 = getelementptr inbounds i16, ptr %72, i64 2
  %74 = getelementptr inbounds [1024 x i16], ptr %12, i64 0, i64 0
  %75 = load i32, ptr %13, align 4, !tbaa !36
  %76 = sext i32 %75 to i64
  %77 = mul i64 %76, 2
  call void @llvm.memmove.p0.p0.i64(ptr align 2 %73, ptr align 16 %74, i64 %77, i1 false)
  %78 = getelementptr inbounds [1024 x i16], ptr %12, i64 0, i64 0
  store i16 48, ptr %78, align 16, !tbaa !30
  %79 = load ptr, ptr %9, align 8, !tbaa !19
  %80 = getelementptr inbounds nuw %struct.u_printf_spec_info, ptr %79, i32 0, i32 3
  %81 = load i16, ptr %80, align 2, !tbaa !60
  %82 = getelementptr inbounds [1024 x i16], ptr %12, i64 0, i64 1
  store i16 %81, ptr %82, align 2, !tbaa !30
  %83 = load i32, ptr %13, align 4, !tbaa !36
  %84 = add nsw i32 %83, 2
  store i32 %84, ptr %13, align 4, !tbaa !36
  br label %85

85:                                               ; preds = %71, %68, %63, %59
  %86 = load ptr, ptr %6, align 8, !tbaa !3
  %87 = getelementptr inbounds nuw %struct.u_printf_stream_handler, ptr %86, i32 0, i32 1
  %88 = load ptr, ptr %87, align 8, !tbaa !85
  %89 = load ptr, ptr %7, align 8, !tbaa !10
  %90 = load ptr, ptr %9, align 8, !tbaa !19
  %91 = getelementptr inbounds [1024 x i16], ptr %12, i64 0, i64 0
  %92 = load i32, ptr %13, align 4, !tbaa !36
  %93 = call noundef i32 %88(ptr noundef %89, ptr noundef %90, ptr noundef %91, i32 noundef %92)
  call void @llvm.lifetime.end.p0(i64 4, ptr %13) #9
  call void @llvm.lifetime.end.p0(i64 2048, ptr %12) #9
  call void @llvm.lifetime.end.p0(i64 8, ptr %11) #9
  ret i32 %93
}