; Function Attrs: mustprogress uwtable
define internal noundef i32 @_ZL20u_printf_hex_handlerPK23u_printf_stream_handlerPvP13ULocaleBundlePK18u_printf_spec_infoPK9ufmt_args(ptr noundef readonly captures(none) %0, ptr noundef %1, ptr readnone captures(none) %2, ptr noundef %3, ptr noundef readonly captures(none) %4) #0 {
  %6 = alloca [1024 x i16], align 16
  %7 = alloca i32, align 4
  %8 = load i64, ptr %4, align 8, !tbaa !20
  call void @llvm.lifetime.start.p0(i64 2048, ptr nonnull %6) #9
  call void @llvm.lifetime.start.p0(i64 4, ptr nonnull %7) #9
  store i32 1024, ptr %7, align 4, !tbaa !30
  %9 = getelementptr inbounds nuw i8, ptr %3, i64 20
  %10 = load i8, ptr %9, align 4, !tbaa !56
  %.not = icmp eq i8 %10, 0
  br i1 %.not, label %13, label %11

11:                                               ; preds = %5
  %12 = and i64 %8, 65535
  br label %17

13:                                               ; preds = %5
  %14 = getelementptr inbounds nuw i8, ptr %3, i64 22
  %15 = load i8, ptr %14, align 2, !tbaa !57
  %.not18 = icmp eq i8 %15, 0
  %16 = and i64 %8, 4294967295
  %spec.select = select i1 %.not18, i64 %16, i64 %8
  br label %17

17:                                               ; preds = %13, %11
  %.0 = phi i64 [ %12, %11 ], [ %spec.select, %13 ]
  %18 = getelementptr inbounds nuw i8, ptr %3, i64 10
  %19 = load i16, ptr %18, align 2, !tbaa !60
  %20 = icmp eq i16 %19, 120
  %21 = zext i1 %20 to i8
  %22 = load i32, ptr %3, align 4, !tbaa !42
  %23 = icmp eq i32 %22, -1
  br i1 %23, label %24, label %27

24:                                               ; preds = %17
  %25 = getelementptr inbounds nuw i8, ptr %3, i64 18
  %26 = load i8, ptr %25, align 2, !tbaa !50
  %.not19 = icmp eq i8 %26, 0
  %spec.select21.idx = select i1 %.not19, i64 0, i64 4
  %spec.select21 = getelementptr inbounds nuw i8, ptr %3, i64 %spec.select21.idx
  %.pre = load i32, ptr %spec.select21, align 4, !tbaa !30
  br label %27

27:                                               ; preds = %24, %17
  %28 = phi i32 [ %22, %17 ], [ %.pre, %24 ]
  call void @_Z13ufmt_64tou_77PDsPimhai(ptr noundef nonnull %6, ptr noundef nonnull %7, i64 noundef %.0, i8 noundef zeroext 16, i8 noundef signext %21, i32 noundef %28)
  %.not20 = icmp eq i64 %.0, 0
  %.pre22 = load i32, ptr %7, align 4, !tbaa !30
  br i1 %.not20, label %41, label %29

29:                                               ; preds = %27
  %30 = getelementptr inbounds nuw i8, ptr %3, i64 14
  %31 = load i8, ptr %30, align 2, !tbaa !49
  %32 = icmp ne i8 %31, 0
  %33 = icmp slt i32 %.pre22, 1022
  %or.cond = select i1 %32, i1 %33, i1 false
  br i1 %or.cond, label %34, label %41

34:                                               ; preds = %29
  %35 = getelementptr inbounds nuw i8, ptr %6, i64 4
  %36 = sext i32 %.pre22 to i64
  %37 = shl nsw i64 %36, 1
  call void @llvm.memmove.p0.p0.i64(ptr nonnull align 4 %35, ptr nonnull align 16 %6, i64 %37, i1 false)
  store i16 48, ptr %6, align 16, !tbaa !12
  %38 = load i16, ptr %18, align 2, !tbaa !60
  %39 = getelementptr inbounds nuw i8, ptr %6, i64 2
  store i16 %38, ptr %39, align 2, !tbaa !12
  %40 = add nsw i32 %.pre22, 2
  store i32 %40, ptr %7, align 4, !tbaa !30
  br label %41

41:                                               ; preds = %34, %29, %27
  %42 = phi i32 [ %40, %34 ], [ %.pre22, %29 ], [ %.pre22, %27 ]
  %43 = getelementptr inbounds nuw i8, ptr %0, i64 8
  %44 = load ptr, ptr %43, align 8, !tbaa !64
  %45 = call noundef i32 %44(ptr noundef %1, ptr noundef nonnull %3, ptr noundef nonnull %6, i32 noundef %42)
  call void @llvm.lifetime.end.p0(i64 4, ptr nonnull %7) #9
  call void @llvm.lifetime.end.p0(i64 2048, ptr nonnull %6) #9
  ret i32 %45
}